; Function Attrs: mustprogress nofree norecurse nosync nounwind willreturn memory(argmem: readwrite) uwtable
define noundef i64 @ZSTDv07_insertBlock(ptr noundef captures(none) %0, ptr noundef %1, i64 noundef returned %2) local_unnamed_addr #13 {
  %4 = getelementptr inbounds nuw i8, ptr %0, i64 21520
  %5 = load ptr, ptr %4, align 8, !tbaa !81
  %.not.i = icmp eq ptr %1, %5
  br i1 %.not.i, label %ZSTDv07_checkContinuity.exit, label %6

6:                                                ; preds = %3
  %7 = getelementptr inbounds nuw i8, ptr %0, i64 21544
  store ptr %5, ptr %7, align 8, !tbaa !82
  %8 = getelementptr inbounds nuw i8, ptr %0, i64 21528
  %9 = load ptr, ptr %8, align 8, !tbaa !83
  %10 = ptrtoint ptr %5 to i64
  %11 = ptrtoint ptr %9 to i64
  %.neg.i = sub i64 %11, %10
  %12 = getelementptr inbounds i8, ptr %1, i64 %.neg.i
  %13 = getelementptr inbounds nuw i8, ptr %0, i64 21536
  store ptr %12, ptr %13, align 8, !tbaa !84
  store ptr %1, ptr %8, align 8, !tbaa !83
  br label %ZSTDv07_checkContinuity.exit

ZSTDv07_checkContinuity.exit:                     ; preds = %3, %6
  %14 = getelementptr inbounds nuw i8, ptr %1, i64 %2
  store ptr %14, ptr %4, align 8, !tbaa !81
  ret i64 %2
}